; Function Attrs: mustprogress uwtable
define void @_ZNK32pxrInternal_v0_24__pxrReserved__7UsdPrim30FindAllRelationshipTargetPathsERKSt8functionIFbRKNS_15UsdRelationshipEEEb(ptr dead_on_unwind noalias nocapture writable writeonly sret(%"class.std::vector.68") align 8 %0, ptr noundef nonnull align 8 dereferenceable(32) %1, ptr noundef nonnull align 8 dereferenceable(32) %2, i1 noundef zeroext %3) local_unnamed_addr #0 align 2 personality ptr @__gxx_personality_v0 {
  %5 = alloca %"struct.pxrInternal_v0_24__pxrReserved__::UsdPrim_TargetFinder.583", align 8
  tail call void @llvm.experimental.noalias.scope.decl(metadata !130)
  tail call void @llvm.experimental.noalias.scope.decl(metadata !133)
  call void @llvm.lifetime.start.p0(i64 1096, ptr nonnull %5), !noalias !130
  call void @_ZN32pxrInternal_v0_24__pxrReserved__20UsdPrim_TargetFinderINS_15UsdRelationshipENS_23UsdPrim_RelTargetFinderEEC2ERKNS_7UsdPrimERKNS_22Usd_PrimFlagsPredicateERKSt8functionIFbRKS1_EEb(ptr noundef nonnull align 8 dereferenceable(1089) %5, ptr noundef nonnull align 8 dereferenceable(32) %1, ptr noundef nonnull align 8 dereferenceable(17) @_ZN32pxrInternal_v0_24__pxrReserved__23UsdPrimDefaultPredicateE, ptr noundef nonnull align 8 dereferenceable(32) %2, i1 noundef zeroext %3), !noalias !136
  invoke void @_ZN32pxrInternal_v0_24__pxrReserved__20UsdPrim_TargetFinderINS_15UsdRelationshipENS_23UsdPrim_RelTargetFinderEE5_FindEv(ptr noundef nonnull align 8 dereferenceable(1089) %5)
          to label %_ZNK32pxrInternal_v0_24__pxrReserved__7UsdPrim30FindAllRelationshipTargetPathsERKNS_22Usd_PrimFlagsPredicateERKSt8functionIFbRKNS_15UsdRelationshipEEEb.exit unwind label %6, !noalias !136

6:                                                ; preds = %4
  %7 = landingpad { ptr, i32 }
          cleanup
  call void @_ZN32pxrInternal_v0_24__pxrReserved__20UsdPrim_TargetFinderINS_15UsdRelationshipENS_23UsdPrim_RelTargetFinderEED2Ev(ptr noundef nonnull align 8 dereferenceable(1089) %5) #18, !noalias !136
  resume { ptr, i32 } %7

_ZNK32pxrInternal_v0_24__pxrReserved__7UsdPrim30FindAllRelationshipTargetPathsERKNS_22Usd_PrimFlagsPredicateERKSt8functionIFbRKNS_15UsdRelationshipEEEb.exit: ; preds = %4
  %8 = getelementptr inbounds nuw i8, ptr %5, i64 1064
  %9 = load ptr, ptr %8, align 8, !noalias !136
  store ptr %9, ptr %0, align 8, !alias.scope !136
  %10 = getelementptr inbounds nuw i8, ptr %0, i64 8
  %11 = getelementptr inbounds i8, ptr %5, i64 1072
  %12 = load ptr, ptr %11, align 8, !noalias !136
  store ptr %12, ptr %10, align 8, !alias.scope !136
  %13 = getelementptr inbounds nuw i8, ptr %0, i64 16
  %14 = getelementptr inbounds i8, ptr %5, i64 1080
  %15 = load ptr, ptr %14, align 8, !noalias !136
  store ptr %15, ptr %13, align 8, !alias.scope !136
  call void @llvm.memset.p0.i64(ptr noundef nonnull align 8 dereferenceable(24) %8, i8 0, i64 24, i1 false), !noalias !136
  call void @_ZN32pxrInternal_v0_24__pxrReserved__20UsdPrim_TargetFinderINS_15UsdRelationshipENS_23UsdPrim_RelTargetFinderEED2Ev(ptr noundef nonnull align 8 dereferenceable(1089) %5) #18, !noalias !136
  call void @llvm.lifetime.end.p0(i64 1096, ptr nonnull %5), !noalias !130
  ret void
}